; Function Attrs: nounwind uwtable
define internal fastcc noundef ptr @uriParseQueryFragW(ptr noundef nonnull captures(none) %0, ptr noundef nonnull %1, ptr noundef nonnull %2, ptr noundef %3) unnamed_addr #0 {
  %.not26 = icmp ult ptr %1, %2
  br i1 %.not26, label %.lr.ph, label %._crit_edge

.lr.ph:                                           ; preds = %4, %tailrecurse.backedge
  %.tr2327 = phi ptr [ %.tr23.be, %tailrecurse.backedge ], [ %1, %4 ]
  %5 = load i32, ptr %.tr2327, align 4, !tbaa !55
  switch i32 %5, label %._crit_edge [
    i32 33, label %6
    i32 36, label %6
    i32 37, label %6
    i32 38, label %6
    i32 40, label %6
    i32 41, label %6
    i32 45, label %6
    i32 42, label %6
    i32 44, label %6
    i32 46, label %6
    i32 58, label %6
    i32 59, label %6
    i32 64, label %6
    i32 39, label %6
    i32 95, label %6
    i32 126, label %6
    i32 43, label %6
    i32 61, label %6
    i32 48, label %6
    i32 49, label %6
    i32 50, label %6
    i32 51, label %6
    i32 52, label %6
    i32 53, label %6
    i32 54, label %6
    i32 55, label %6
    i32 56, label %6
    i32 57, label %6
    i32 65, label %6
    i32 66, label %6
    i32 67, label %6
    i32 68, label %6
    i32 69, label %6
    i32 70, label %6
    i32 97, label %6
    i32 98, label %6
    i32 99, label %6
    i32 100, label %6
    i32 101, label %6
    i32 102, label %6
    i32 103, label %6
    i32 71, label %6
    i32 104, label %6
    i32 72, label %6
    i32 105, label %6
    i32 73, label %6
    i32 106, label %6
    i32 74, label %6
    i32 107, label %6
    i32 75, label %6
    i32 108, label %6
    i32 76, label %6
    i32 109, label %6
    i32 77, label %6
    i32 110, label %6
    i32 78, label %6
    i32 111, label %6
    i32 79, label %6
    i32 112, label %6
    i32 80, label %6
    i32 113, label %6
    i32 81, label %6
    i32 114, label %6
    i32 82, label %6
    i32 115, label %6
    i32 83, label %6
    i32 116, label %6
    i32 84, label %6
    i32 117, label %6
    i32 85, label %6
    i32 118, label %6
    i32 86, label %6
    i32 119, label %6
    i32 87, label %6
    i32 120, label %6
    i32 88, label %6
    i32 121, label %6
    i32 89, label %6
    i32 122, label %6
    i32 90, label %6
    i32 47, label %9
    i32 63, label %9
  ]

6:                                                ; preds = %.lr.ph, %.lr.ph, %.lr.ph, %.lr.ph, %.lr.ph, %.lr.ph, %.lr.ph, %.lr.ph, %.lr.ph, %.lr.ph, %.lr.ph, %.lr.ph, %.lr.ph, %.lr.ph, %.lr.ph, %.lr.ph, %.lr.ph, %.lr.ph, %.lr.ph, %.lr.ph, %.lr.ph, %.lr.ph, %.lr.ph, %.lr.ph, %.lr.ph, %.lr.ph, %.lr.ph, %.lr.ph, %.lr.ph, %.lr.ph, %.lr.ph, %.lr.ph, %.lr.ph, %.lr.ph, %.lr.ph, %.lr.ph, %.lr.ph, %.lr.ph, %.lr.ph, %.lr.ph, %.lr.ph, %.lr.ph, %.lr.ph, %.lr.ph, %.lr.ph, %.lr.ph, %.lr.ph, %.lr.ph, %.lr.ph, %.lr.ph, %.lr.ph, %.lr.ph, %.lr.ph, %.lr.ph, %.lr.ph, %.lr.ph, %.lr.ph, %.lr.ph, %.lr.ph, %.lr.ph, %.lr.ph, %.lr.ph, %.lr.ph, %.lr.ph, %.lr.ph, %.lr.ph, %.lr.ph, %.lr.ph, %.lr.ph, %.lr.ph, %.lr.ph, %.lr.ph, %.lr.ph, %.lr.ph, %.lr.ph, %.lr.ph, %.lr.ph, %.lr.ph, %.lr.ph, %.lr.ph
  %7 = tail call fastcc ptr @uriParsePcharW(ptr noundef %0, ptr noundef %.tr2327, ptr noundef %2, ptr noundef %3)
  %8 = icmp eq ptr %7, null
  br i1 %8, label %._crit_edge, label %tailrecurse.backedge

9:                                                ; preds = %.lr.ph, %.lr.ph
  %10 = getelementptr inbounds nuw i8, ptr %.tr2327, i64 4
  br label %tailrecurse.backedge

tailrecurse.backedge:                             ; preds = %9, %6
  %.tr23.be = phi ptr [ %10, %9 ], [ %7, %6 ]
  %.not = icmp ult ptr %.tr23.be, %2
  br i1 %.not, label %.lr.ph, label %._crit_edge

._crit_edge:                                      ; preds = %tailrecurse.backedge, %6, %.lr.ph, %4
  %.0 = phi ptr [ %2, %4 ], [ %.tr2327, %.lr.ph ], [ null, %6 ], [ %2, %tailrecurse.backedge ]
  ret ptr %.0
}